target datalayout = "e-m:e-p270:32:32-p271:32:32-p272:64:64-i64:64-i128:128-f80:128-n8:16:32:64-S128"
target triple = "x86_64-pc-linux-gnu"

%struct.jpeg_decompress_struct = type { ptr, ptr, ptr, ptr, i32, i32, ptr, i32, i32, i32, i32, i32, i32, i32, double, i32, i32, i32, i32, i32, i32, i32, i32, i32, i32, i32, i32, i32, i32, i32, i32, i32, i32, ptr, i32, i32, i32, i32, i32, ptr, [4 x ptr], [4 x ptr], [4 x ptr], i32, ptr, i32, i32, [16 x i8], [16 x i8], [16 x i8], i32, i32, i8, i8, i8, i16, i16, i32, i8, i32, ptr, i32, i32, i32, i32, ptr, i32, [4 x ptr], i32, i32, i32, [10 x i32], i32, i32, i32, i32, i32, ptr, ptr, ptr, ptr, ptr, ptr, ptr, ptr, ptr, ptr, ptr }
%struct.jpeg_source_mgr = type { ptr, i64, ptr, ptr, ptr, ptr, ptr }

; Function Attrs: nounwind uwtable
define internal void @skip_input_data(ptr noundef %0, i64 noundef %1) #0 {
  %3 = alloca ptr, align 8
  %4 = alloca i64, align 8
  %5 = alloca ptr, align 8
  store ptr %0, ptr %3, align 8, !tbaa !3
  store i64 %1, ptr %4, align 8, !tbaa !56
  call void @llvm.lifetime.start.p0(i64 8, ptr %5) #3
  %6 = load ptr, ptr %3, align 8, !tbaa !3
  %7 = getelementptr inbounds nuw %struct.jpeg_decompress_struct, ptr %6, i32 0, i32 6
  %8 = load ptr, ptr %7, align 8, !tbaa !10
  store ptr %8, ptr %5, align 8, !tbaa !59
  %9 = load i64, ptr %4, align 8, !tbaa !56
  %10 = icmp sgt i64 %9, 0
  br i1 %10, label %11, label %40

11:                                               ; preds = %2
  br label %12

12:                                               ; preds = %18, %11
  %13 = load i64, ptr %4, align 8, !tbaa !56
  %14 = load ptr, ptr %5, align 8, !tbaa !59
  %15 = getelementptr inbounds nuw %struct.jpeg_source_mgr, ptr %14, i32 0, i32 1
  %16 = load i64, ptr %15, align 8, !tbaa !60
  %17 = icmp sgt i64 %13, %16
  br i1 %17, label %18, label %29

18:                                               ; preds = %12
  %19 = load ptr, ptr %5, align 8, !tbaa !59
  %20 = getelementptr inbounds nuw %struct.jpeg_source_mgr, ptr %19, i32 0, i32 1
  %21 = load i64, ptr %20, align 8, !tbaa !60
  %22 = load i64, ptr %4, align 8, !tbaa !56
  %23 = sub nsw i64 %22, %21
  store i64 %23, ptr %4, align 8, !tbaa !56
  %24 = load ptr, ptr %5, align 8, !tbaa !59
  %25 = getelementptr inbounds nuw %struct.jpeg_source_mgr, ptr %24, i32 0, i32 3
  %26 = load ptr, ptr %25, align 8, !tbaa !61
  %27 = load ptr, ptr %3, align 8, !tbaa !3
  %28 = call i32 %26(ptr noundef %27)
  br label %12, !llvm.loop !62

29:                                               ; preds = %12
  %30 = load i64, ptr %4, align 8, !tbaa !56
  %31 = load ptr, ptr %5, align 8, !tbaa !59
  %32 = getelementptr inbounds nuw %struct.jpeg_source_mgr, ptr %31, i32 0, i32 0
  %33 = load ptr, ptr %32, align 8, !tbaa !64
  %34 = getelementptr inbounds nuw i8, ptr %33, i64 %30
  store ptr %34, ptr %32, align 8, !tbaa !64
  %35 = load i64, ptr %4, align 8, !tbaa !56
  %36 = load ptr, ptr %5, align 8, !tbaa !59
  %37 = getelementptr inbounds nuw %struct.jpeg_source_mgr, ptr %36, i32 0, i32 1
  %38 = load i64, ptr %37, align 8, !tbaa !60
  %39 = sub i64 %38, %35
  store i64 %39, ptr %37, align 8, !tbaa !60
  br label %40

40:                                               ; preds = %29, %2
  call void @llvm.lifetime.end.p0(i64 8, ptr %5) #3
  ret void
}