; Function Attrs: nounwind uwtable
define internal void @skip_input_data(ptr noundef %0, i64 noundef %1) #0 {
  %3 = getelementptr inbounds nuw i8, ptr %0, i64 40
  %4 = load ptr, ptr %3, align 8, !tbaa !3
  %5 = icmp sgt i64 %1, 0
  br i1 %5, label %.preheader, label %20

.preheader:                                       ; preds = %2
  %6 = getelementptr inbounds nuw i8, ptr %4, i64 8
  %7 = load i64, ptr %6, align 8, !tbaa !54
  %8 = icmp sgt i64 %1, %7
  br i1 %8, label %.lr.ph, label %._crit_edge

.lr.ph:                                           ; preds = %.preheader
  %9 = getelementptr inbounds nuw i8, ptr %4, i64 24
  br label %10

10:                                               ; preds = %.lr.ph, %10
  %11 = phi i64 [ %7, %.lr.ph ], [ %15, %10 ]
  %.014 = phi i64 [ %1, %.lr.ph ], [ %12, %10 ]
  %12 = sub nsw i64 %.014, %11
  %13 = load ptr, ptr %9, align 8, !tbaa !55
  %14 = tail call i32 %13(ptr noundef %0) #6
  %15 = load i64, ptr %6, align 8, !tbaa !54
  %16 = icmp sgt i64 %12, %15
  br i1 %16, label %10, label %._crit_edge, !llvm.loop !56

._crit_edge:                                      ; preds = %10, %.preheader
  %.0.lcssa = phi i64 [ %1, %.preheader ], [ %12, %10 ]
  %.lcssa = phi i64 [ %7, %.preheader ], [ %15, %10 ]
  %17 = load ptr, ptr %4, align 8, !tbaa !58
  %18 = getelementptr inbounds nuw i8, ptr %17, i64 %.0.lcssa
  store ptr %18, ptr %4, align 8, !tbaa !58
  %19 = sub i64 %.lcssa, %.0.lcssa
  store i64 %19, ptr %6, align 8, !tbaa !54
  br label %20

20:                                               ; preds = %._crit_edge, %2
  ret void
}